target datalayout = "e-m:e-p270:32:32-p271:32:32-p272:64:64-i64:64-i128:128-f80:128-n8:16:32:64-S128"
target triple = "x86_64-pc-linux-gnu"

%struct._zend_phpdbg_globals = type { [11 x %struct._zend_array], %struct._zend_array, %struct._zend_array, ptr, ptr, %struct.phpdbg_frame_t, i32, ptr, %struct.phpdbg_lexer_data, ptr, %struct.sigaction, i32, i64, %struct.phpdbg_btree, %struct.phpdbg_btree, %struct._zend_array, %struct._zend_array, %struct._zend_array, %struct._zend_array, ptr, ptr, i8, ptr, ptr, ptr, i64, ptr, %struct._zval_struct, i32, i32, i8, i8, ptr, ptr, ptr, %struct._zend_array, ptr, ptr, ptr, [3 x %struct.anon.8], ptr, %struct.anon.9, i64, [2 x ptr], [3 x ptr], ptr, i8, ptr, ptr, [500 x i8], i32, %struct.phpdbg_signal_safe_mem, ptr, i64, ptr, i64 }
%struct.phpdbg_frame_t = type { i32, ptr, ptr }
%struct.phpdbg_lexer_data = type { i32, ptr, ptr, ptr, ptr, i32 }
%struct.sigaction = type { %union.anon.2, %struct.__sigset_t, i32, ptr }
%union.anon.2 = type { ptr }
%struct.__sigset_t = type { [16 x i64] }
%struct.phpdbg_btree = type { i64, i64, i8, ptr }
%struct._zval_struct = type { %union._zend_value, %union.anon.4, %union.anon.7 }
%union._zend_value = type { i64 }
%union.anon.4 = type { i32 }
%union.anon.7 = type { i32 }
%struct._zend_array = type { %struct._zend_refcounted_h, %union.anon.0, i32, %union.anon.1, i32, i32, i32, i32, i64, ptr }
%struct._zend_refcounted_h = type { i32, %union.anon }
%union.anon = type { i32 }
%union.anon.0 = type { i32 }
%union.anon.1 = type { ptr }
%struct.anon.8 = type { i32 }
%struct.anon.9 = type { i8, i32, i32, ptr, i32 }
%struct.phpdbg_signal_safe_mem = type { ptr, i8, ptr, ptr }
%struct._zend_llist = type { ptr, ptr, i64, i64, ptr, i8, ptr }
%struct._phpdbg_param = type { i32, i64, i64, %struct.anon.10, %struct.anon.11, ptr, i64, ptr, ptr }
%struct.anon.10 = type { ptr, i64 }
%struct.anon.11 = type { ptr, ptr }

@.str.61 = private unnamed_addr constant [2 x i8] c"\0A\00", align 1
@phpdbg_globals = external global %struct._zend_phpdbg_globals, align 8
@.str.126 = private unnamed_addr constant [44 x i8] c"Unsupported parameter type (%s) for command\00", align 1
@.str.150 = private unnamed_addr constant [16 x i8] c"Zend extensions\00", align 1
@zend_extensions = external global %struct._zend_llist, align 8
@.str.151 = private unnamed_addr constant [8 x i8] c"Modules\00", align 1
@module_registry = external global %struct._zend_array, align 8
@.str.152 = private unnamed_addr constant [68 x i8] c"Could not load %s, not found or invalid zend extension / module: %s\00", align 1
@.str.153 = private unnamed_addr constant [41 x i8] c"Successfully loaded the %s %s at path %s\00", align 1

; Function Attrs: nounwind uwtable
define hidden i32 @phpdbg_do_dl(ptr noundef %0) #0 {
  %2 = alloca ptr, align 8
  %3 = alloca ptr, align 8
  %4 = alloca ptr, align 8
  %5 = alloca ptr, align 8
  store ptr %0, ptr %2, align 8
  %6 = load ptr, ptr %2, align 8
  %7 = icmp ne ptr %6, null
  br i1 %7, label %8, label %13

8:                                                ; preds = %1
  %9 = load ptr, ptr %2, align 8
  %10 = getelementptr inbounds %struct._phpdbg_param, ptr %9, i32 0, i32 0
  %11 = load i32, ptr %10, align 8
  %12 = icmp eq i32 %11, 0
  br i1 %12, label %13, label %20

13:                                               ; preds = %8, %1
  %14 = load i32, ptr getelementptr inbounds (%struct._zend_phpdbg_globals, ptr @phpdbg_globals, i32 0, i32 39, i64 1), align 4
  %15 = call i32 (i32, i32, ptr, ...) @phpdbg_print(i32 noundef 2, i32 noundef %14, ptr noundef @.str.150)
  call void @zend_llist_apply(ptr noundef @zend_extensions, ptr noundef @add_zendext_info)
  %16 = load i32, ptr getelementptr inbounds (%struct._zend_phpdbg_globals, ptr @phpdbg_globals, i32 0, i32 39, i64 1), align 4
  %17 = call i32 (i32, ptr, ...) @phpdbg_out_internal(i32 noundef %16, ptr noundef @.str.61)
  %18 = load i32, ptr getelementptr inbounds (%struct._zend_phpdbg_globals, ptr @phpdbg_globals, i32 0, i32 39, i64 1), align 4
  %19 = call i32 (i32, i32, ptr, ...) @phpdbg_print(i32 noundef 2, i32 noundef %18, ptr noundef @.str.151)
  call void @zend_hash_apply(ptr noundef @module_registry, ptr noundef @add_module_info)
  br label %53

20:                                               ; preds = %8
  %21 = load ptr, ptr %2, align 8
  %22 = getelementptr inbounds %struct._phpdbg_param, ptr %21, i32 0, i32 0
  %23 = load i32, ptr %22, align 8
  switch i32 %23, label %47 [
    i32 5, label %24
  ]

24:                                               ; preds = %20
  %25 = load ptr, ptr %2, align 8
  %26 = getelementptr inbounds %struct._phpdbg_param, ptr %25, i32 0, i32 5
  %27 = load ptr, ptr %26, align 8
  %28 = load ptr, ptr %2, align 8
  %29 = getelementptr inbounds %struct._phpdbg_param, ptr %28, i32 0, i32 6
  %30 = load i64, ptr %29, align 8
  %31 = call noalias ptr @_estrndup(ptr noundef %27, i64 noundef %30)
  store ptr %31, ptr %5, align 8
  call void @phpdbg_activate_err_buf(i1 noundef zeroext true)
  %32 = call ptr @phpdbg_load_module_or_extension(ptr noundef %5, ptr noundef %4)
  store ptr %32, ptr %3, align 8
  %33 = icmp eq ptr %32, null
  br i1 %33, label %34, label %39

34:                                               ; preds = %24
  %35 = load i32, ptr getelementptr inbounds (%struct._zend_phpdbg_globals, ptr @phpdbg_globals, i32 0, i32 39, i64 1), align 4
  %36 = load ptr, ptr %5, align 8
  %37 = load ptr, ptr getelementptr inbounds (%struct._zend_phpdbg_globals, ptr @phpdbg_globals, i32 0, i32 41, i32 3), align 8
  %38 = call i32 (i32, i32, ptr, ...) @phpdbg_print(i32 noundef 1, i32 noundef %35, ptr noundef @.str.152, ptr noundef %36, ptr noundef %37)
  br label %45

39:                                               ; preds = %24
  %40 = load i32, ptr getelementptr inbounds (%struct._zend_phpdbg_globals, ptr @phpdbg_globals, i32 0, i32 39, i64 1), align 4
  %41 = load ptr, ptr %3, align 8
  %42 = load ptr, ptr %4, align 8
  %43 = load ptr, ptr %5, align 8
  %44 = call i32 (i32, i32, ptr, ...) @phpdbg_print(i32 noundef 2, i32 noundef %40, ptr noundef @.str.153, ptr noundef %41, ptr noundef %42, ptr noundef %43)
  br label %45

45:                                               ; preds = %39, %34
  call void @phpdbg_activate_err_buf(i1 noundef zeroext false)
  call void @phpdbg_free_err_buf()
  %46 = load ptr, ptr %5, align 8
  call void @_efree(ptr noundef %46)
  br label %52

47:                                               ; preds = %20
  %48 = load i32, ptr getelementptr inbounds (%struct._zend_phpdbg_globals, ptr @phpdbg_globals, i32 0, i32 39, i64 1), align 4
  %49 = load ptr, ptr %2, align 8
  %50 = call ptr @phpdbg_get_param_type(ptr noundef %49)
  %51 = call i32 (i32, i32, ptr, ...) @phpdbg_print(i32 noundef 1, i32 noundef %48, ptr noundef @.str.126, ptr noundef %50)
  br label %52

52:                                               ; preds = %47, %45
  br label %53

53:                                               ; preds = %52, %13
  ret i32 0
}