; Function Attrs: nounwind uwtable
define hidden noundef i32 @phpdbg_do_dl(ptr noundef %0) local_unnamed_addr #0 {
  %2 = alloca ptr, align 8
  %3 = alloca ptr, align 8
  %.not = icmp eq ptr %0, null
  br i1 %.not, label %6, label %4

4:                                                ; preds = %1
  %5 = load i32, ptr %0, align 8
  switch i32 %5, label %32 [
    i32 0, label %6
    i32 5, label %13
  ]

6:                                                ; preds = %4, %1
  %7 = load i32, ptr getelementptr inbounds (%struct._zend_phpdbg_globals, ptr @phpdbg_globals, i64 0, i32 39, i64 1), align 4
  %8 = tail call i32 (i32, i32, ptr, ...) @phpdbg_print(i32 noundef 2, i32 noundef %7, ptr noundef nonnull @.str.150) #24
  tail call void @zend_llist_apply(ptr noundef nonnull @zend_extensions, ptr noundef nonnull @add_zendext_info) #24
  %9 = load i32, ptr getelementptr inbounds (%struct._zend_phpdbg_globals, ptr @phpdbg_globals, i64 0, i32 39, i64 1), align 4
  %10 = tail call i32 (i32, ptr, ...) @phpdbg_out_internal(i32 noundef %9, ptr noundef nonnull @.str.61) #24
  %11 = load i32, ptr getelementptr inbounds (%struct._zend_phpdbg_globals, ptr @phpdbg_globals, i64 0, i32 39, i64 1), align 4
  %12 = tail call i32 (i32, i32, ptr, ...) @phpdbg_print(i32 noundef 2, i32 noundef %11, ptr noundef nonnull @.str.151) #24
  tail call void @zend_hash_apply(ptr noundef nonnull @module_registry, ptr noundef nonnull @add_module_info) #24
  br label %36

13:                                               ; preds = %4
  %14 = getelementptr inbounds i8, ptr %0, i64 56
  %15 = load ptr, ptr %14, align 8
  %16 = getelementptr inbounds i8, ptr %0, i64 64
  %17 = load i64, ptr %16, align 8
  %18 = tail call noalias ptr @_estrndup(ptr noundef %15, i64 noundef %17) #24
  store ptr %18, ptr %3, align 8
  tail call void @phpdbg_activate_err_buf(i1 noundef zeroext true) #24
  %19 = call ptr @phpdbg_load_module_or_extension(ptr noundef nonnull %3, ptr noundef nonnull %2)
  %20 = icmp eq ptr %19, null
  %21 = load i32, ptr getelementptr inbounds (%struct._zend_phpdbg_globals, ptr @phpdbg_globals, i64 0, i32 39, i64 1), align 4
  br i1 %20, label %22, label %26

22:                                               ; preds = %13
  %23 = load ptr, ptr %3, align 8
  %24 = load ptr, ptr getelementptr inbounds (%struct._zend_phpdbg_globals, ptr @phpdbg_globals, i64 0, i32 41, i32 3), align 8
  %25 = tail call i32 (i32, i32, ptr, ...) @phpdbg_print(i32 noundef 1, i32 noundef %21, ptr noundef nonnull @.str.152, ptr noundef %23, ptr noundef %24) #24
  br label %30

26:                                               ; preds = %13
  %27 = load ptr, ptr %2, align 8
  %28 = load ptr, ptr %3, align 8
  %29 = tail call i32 (i32, i32, ptr, ...) @phpdbg_print(i32 noundef 2, i32 noundef %21, ptr noundef nonnull @.str.153, ptr noundef nonnull %19, ptr noundef %27, ptr noundef %28) #24
  br label %30

30:                                               ; preds = %26, %22
  %31 = phi ptr [ %28, %26 ], [ %23, %22 ]
  tail call void @phpdbg_activate_err_buf(i1 noundef zeroext false) #24
  tail call void @phpdbg_free_err_buf() #24
  tail call void @_efree(ptr noundef %31) #24
  br label %36

32:                                               ; preds = %4
  %33 = load i32, ptr getelementptr inbounds (%struct._zend_phpdbg_globals, ptr @phpdbg_globals, i64 0, i32 39, i64 1), align 4
  %34 = tail call ptr @phpdbg_get_param_type(ptr noundef nonnull %0) #24
  %35 = tail call i32 (i32, i32, ptr, ...) @phpdbg_print(i32 noundef 1, i32 noundef %33, ptr noundef nonnull @.str.126, ptr noundef %34) #24
  br label %36

36:                                               ; preds = %30, %32, %6
  ret i32 0
}